; ModuleID = '60/728.c'
source_filename = "60/728.c"
target datalayout = "e-m:e-p270:32:32-p271:32:32-p272:64:64-i64:64-f80:128-n8:16:32:64-S128"
target triple = "x86_64-pc-linux-gnu"

@.str = private unnamed_addr constant [3 x i8] c"%d\00", align 1
@.str.1 = private unnamed_addr constant [7 x i8] c"%d %d\0A\00", align 1
@.str.2 = private unnamed_addr constant [6 x i8] c"empty\00", align 1

; Function Attrs: noinline nounwind uwtable
define dso_local i32 @ifprime(i32 %0) #0 {
  %2 = alloca i32, align 4
  %3 = alloca i32, align 4
  %4 = alloca i32, align 4
  %5 = alloca i32, align 4
  store i32 %0, i32* %3, align 4
  %6 = load i32, i32* %3, align 4
  %7 = sitofp i32 %6 to double
  %8 = call double @sqrt(double %7) #3
  %9 = fptosi double %8 to i32
  store i32 %9, i32* %5, align 4
  store i32 2, i32* %4, align 4
  br label %10

10:                                               ; preds = %21, %1
  %11 = load i32, i32* %4, align 4
  %12 = load i32, i32* %5, align 4
  %13 = icmp sle i32 %11, %12
  br i1 %13, label %14, label %24

14:                                               ; preds = %10
  %15 = load i32, i32* %3, align 4
  %16 = load i32, i32* %4, align 4
  %17 = srem i32 %15, %16
  %18 = icmp ne i32 %17, 0
  br i1 %18, label %20, label %19

19:                                               ; preds = %14
  store i32 0, i32* %2, align 4
  br label %25

20:                                               ; preds = %14
  br label %21

21:                                               ; preds = %20
  %22 = load i32, i32* %4, align 4
  %23 = add nsw i32 %22, 1
  store i32 %23, i32* %4, align 4
  br label %10

24:                                               ; preds = %10
  store i32 1, i32* %2, align 4
  br label %25

25:                                               ; preds = %24, %19
  %26 = load i32, i32* %2, align 4
  ret i32 %26
}

; Function Attrs: nounwind
declare dso_local double @sqrt(double) #1

; Function Attrs: noinline nounwind uwtable
define dso_local i32 @main() #0 {
  %1 = alloca i32, align 4
  %2 = alloca i32, align 4
  %3 = alloca i32, align 4
  %4 = alloca i32, align 4
  store i32 0, i32* %1, align 4
  store i32 0, i32* %4, align 4
  %5 = call i32 (i8*, ...) @__isoc99_scanf(i8* getelementptr inbounds ([3 x i8], [3 x i8]* @.str, i64 0, i64 0), i32* %3)
  store i32 3, i32* %2, align 4
  br label %6

6:                                                ; preds = %37, %0
  %7 = load i32, i32* %2, align 4
  %8 = load i32, i32* %3, align 4
  %9 = icmp sle i32 %7, %8
  br i1 %9, label %10, label %40

10:                                               ; preds = %6
  %11 = load i32, i32* %2, align 4
  %12 = icmp eq i32 %11, 5
  br i1 %12, label %13, label %15

13:                                               ; preds = %10
  store i32 1, i32* %4, align 4
  %14 = call i32 (i8*, ...) @printf(i8* getelementptr inbounds ([7 x i8], [7 x i8]* @.str.1, i64 0, i64 0), i32 3, i32 5)
  store i32 6, i32* %2, align 4
  br label %36

15:                                               ; preds = %10
  %16 = load i32, i32* %2, align 4
  %17 = icmp sgt i32 %16, 5
  br i1 %17, label %18, label %35

18:                                               ; preds = %15
  %19 = load i32, i32* %2, align 4
  %20 = call i32 @ifprime(i32 %19)
  %21 = icmp ne i32 %20, 0
  br i1 %21, label %22, label %32

22:                                               ; preds = %18
  %23 = load i32, i32* %2, align 4
  %24 = sub nsw i32 %23, 2
  %25 = call i32 @ifprime(i32 %24)
  %26 = icmp ne i32 %25, 0
  br i1 %26, label %27, label %32

27:                                               ; preds = %22
  %28 = load i32, i32* %2, align 4
  %29 = sub nsw i32 %28, 2
  %30 = load i32, i32* %2, align 4
  %31 = call i32 (i8*, ...) @printf(i8* getelementptr inbounds ([7 x i8], [7 x i8]* @.str.1, i64 0, i64 0), i32 %29, i32 %30)
  br label %32

32:                                               ; preds = %27, %22, %18
  %33 = load i32, i32* %2, align 4
  %34 = add nsw i32 %33, 5
  store i32 %34, i32* %2, align 4
  br label %35

35:                                               ; preds = %32, %15
  br label %36

36:                                               ; preds = %35, %13
  br label %37

37:                                               ; preds = %36
  %38 = load i32, i32* %2, align 4
  %39 = add nsw i32 %38, 1
  store i32 %39, i32* %2, align 4
  br label %6

40:                                               ; preds = %6
  %41 = load i32, i32* %4, align 4
  %42 = icmp ne i32 %41, 0
  br i1 %42, label %45, label %43

43:                                               ; preds = %40
  %44 = call i32 (i8*, ...) @printf(i8* getelementptr inbounds ([6 x i8], [6 x i8]* @.str.2, i64 0, i64 0))
  br label %45

45:                                               ; preds = %43, %40
  %46 = load i32, i32* %1, align 4
  ret i32 %46
}

declare dso_local i32 @__isoc99_scanf(i8*, ...) #2

declare dso_local i32 @printf(i8*, ...) #2


!llvm.module.flags = !{!0}
!llvm.ident = !{!1}

!0 = !{i32 1, !"wchar_size", i32 4}
!1 = !{!"clang version 10.0.0-4ubuntu1 "}
